(lp0
ccopy_reg
_reconstructor
p1
(c__main__
Contact
p2
c__builtin__
object
p3
Ntp4
Rp5
(dp6
S'url'
p7
S'robby.com'
p8
sS'phone'
p9
S'706-202-7841'
p10
sS'name'
p11
S'Robby'
p12
sS'email'
p13
S'rcackerley@me.com'
p14
sbag1
(g2
g3
Ntp15
Rp16
(dp17
g7
S'mell.com'
p18
sg9
S'706-769-2555'
p19
sg11
S'Mell'
p20
sg13
S'mell@mell.com'
p21
sbag1
(g2
g3
Ntp22
Rp23
(dp24
g7
S'kristen.com'
p25
sg9
S'770-500-0377'
p26
sg11
S'Kristen'
p27
sg13
S'kristen@me.com'
p28
sbag1
(g2
g3
Ntp29
Rp30
(dp31
g7
S'nate.com'
p32
sg9
S'777777'
p33
sg11
S'ante'
p34
sg13
S'nate@nap.com'
p35
sba.